; Function Attrs: mustprogress nofree norecurse nosync nounwind willreturn memory(read, inaccessiblemem: none) uwtable
define hidden noundef zeroext i1 @_ZNK6Method15is_final_methodEv(ptr nocapture noundef nonnull readonly align 8 dereferenceable(88) %0) local_unnamed_addr #7 align 2 {
  %2 = getelementptr inbounds i8, ptr %0, i64 8
  %3 = load ptr, ptr %2, align 8
  %4 = getelementptr inbounds i8, ptr %3, i64 8
  %5 = load ptr, ptr %4, align 8
  %6 = getelementptr inbounds i8, ptr %5, i64 24
  %7 = load ptr, ptr %6, align 8
  %8 = getelementptr inbounds i8, ptr %7, i64 164
  %.sroa.0.0.copyload.i = load i32, ptr %8, align 4
  %9 = getelementptr inbounds i8, ptr %3, i64 28
  %10 = load i32, ptr %9, align 4
  %11 = and i32 %10, 64
  %.not.i = icmp eq i32 %11, 0
  br i1 %.not.i, label %12, label %_ZNK6Method15is_final_methodE11AccessFlags.exit

12:                                               ; preds = %1
  %13 = and i32 %.sroa.0.0.copyload.i, 512
  %.not4.i.i = icmp ne i32 %13, 0
  %.phi.trans.insert = getelementptr inbounds i8, ptr %0, i64 40
  %.sroa.0.0.copyload.i.i.i.pre = load i32, ptr %.phi.trans.insert, align 8
  %14 = and i32 %.sroa.0.0.copyload.i.i.i.pre, 1026
  %or.cond.not.i.i = icmp eq i32 %14, 0
  %or.cond = select i1 %.not4.i.i, i1 %or.cond.not.i.i, i1 false
  br i1 %or.cond, label %_ZNK6Method15is_final_methodE11AccessFlags.exit, label %_ZNK6Method17is_default_methodEv.exit.i

_ZNK6Method17is_default_methodEv.exit.i:          ; preds = %12
  %15 = and i32 %.sroa.0.0.copyload.i.i.i.pre, 16
  %.not3.i = icmp eq i32 %15, 0
  br i1 %.not3.i, label %16, label %_ZNK6Method15is_final_methodE11AccessFlags.exit

16:                                               ; preds = %_ZNK6Method17is_default_methodEv.exit.i
  %17 = and i32 %.sroa.0.0.copyload.i, 16
  %18 = icmp ne i32 %17, 0
  br label %_ZNK6Method15is_final_methodE11AccessFlags.exit

_ZNK6Method15is_final_methodE11AccessFlags.exit:  ; preds = %12, %1, %_ZNK6Method17is_default_methodEv.exit.i, %16
  %.0.i = phi i1 [ false, %1 ], [ true, %_ZNK6Method17is_default_methodEv.exit.i ], [ %18, %16 ], [ false, %12 ]
  ret i1 %.0.i
}